; ModuleID = '10/576.c'
source_filename = "10/576.c"
target datalayout = "e-m:e-p270:32:32-p271:32:32-p272:64:64-i64:64-f80:128-n8:16:32:64-S128"
target triple = "x86_64-pc-linux-gnu"

@dp = dso_local global <{ i32, [29 x i32] }> <{ i32 1, [29 x i32] zeroinitializer }>, align 16
@ans = dso_local global i32 -1, align 4
@.str = private unnamed_addr constant [3 x i8] c"%d\00", align 1
@n = common dso_local global i32 0, align 4
@a = common dso_local global [30 x i32] zeroinitializer, align 16
@.str.1 = private unnamed_addr constant [4 x i8] c"%d\0A\00", align 1

; Function Attrs: noinline nounwind uwtable
define dso_local i32 @main() #0 {
  %1 = alloca i32, align 4
  %2 = alloca i32, align 4
  %3 = alloca i32, align 4
  store i32 0, i32* %1, align 4
  %4 = call i32 (i8*, ...) @__isoc99_scanf(i8* getelementptr inbounds ([3 x i8], [3 x i8]* @.str, i64 0, i64 0), i32* @n)
  store i32 0, i32* %2, align 4
  br label %5

5:                                                ; preds = %14, %0
  %6 = load i32, i32* %2, align 4
  %7 = load i32, i32* @n, align 4
  %8 = icmp slt i32 %6, %7
  br i1 %8, label %9, label %17

9:                                                ; preds = %5
  %10 = load i32, i32* %2, align 4
  %11 = sext i32 %10 to i64
  %12 = getelementptr inbounds [30 x i32], [30 x i32]* @a, i64 0, i64 %11
  %13 = call i32 (i8*, ...) @__isoc99_scanf(i8* getelementptr inbounds ([3 x i8], [3 x i8]* @.str, i64 0, i64 0), i32* %12)
  br label %14

14:                                               ; preds = %9
  %15 = load i32, i32* %2, align 4
  %16 = add nsw i32 %15, 1
  store i32 %16, i32* %2, align 4
  br label %5

17:                                               ; preds = %5
  store i32 1, i32* %2, align 4
  br label %18

18:                                               ; preds = %65, %17
  %19 = load i32, i32* %2, align 4
  %20 = load i32, i32* @n, align 4
  %21 = icmp slt i32 %19, %20
  br i1 %21, label %22, label %68

22:                                               ; preds = %18
  %23 = load i32, i32* %2, align 4
  %24 = sext i32 %23 to i64
  %25 = getelementptr inbounds [30 x i32], [30 x i32]* bitcast (<{ i32, [29 x i32] }>* @dp to [30 x i32]*), i64 0, i64 %24
  store i32 1, i32* %25, align 4
  store i32 0, i32* %3, align 4
  br label %26

26:                                               ; preds = %61, %22
  %27 = load i32, i32* %3, align 4
  %28 = load i32, i32* %2, align 4
  %29 = icmp slt i32 %27, %28
  br i1 %29, label %30, label %64

30:                                               ; preds = %26
  %31 = load i32, i32* %3, align 4
  %32 = sext i32 %31 to i64
  %33 = getelementptr inbounds [30 x i32], [30 x i32]* @a, i64 0, i64 %32
  %34 = load i32, i32* %33, align 4
  %35 = load i32, i32* %2, align 4
  %36 = sext i32 %35 to i64
  %37 = getelementptr inbounds [30 x i32], [30 x i32]* @a, i64 0, i64 %36
  %38 = load i32, i32* %37, align 4
  %39 = icmp sge i32 %34, %38
  br i1 %39, label %40, label %60

40:                                               ; preds = %30
  %41 = load i32, i32* %3, align 4
  %42 = sext i32 %41 to i64
  %43 = getelementptr inbounds [30 x i32], [30 x i32]* bitcast (<{ i32, [29 x i32] }>* @dp to [30 x i32]*), i64 0, i64 %42
  %44 = load i32, i32* %43, align 4
  %45 = add nsw i32 %44, 1
  %46 = load i32, i32* %2, align 4
  %47 = sext i32 %46 to i64
  %48 = getelementptr inbounds [30 x i32], [30 x i32]* bitcast (<{ i32, [29 x i32] }>* @dp to [30 x i32]*), i64 0, i64 %47
  %49 = load i32, i32* %48, align 4
  %50 = icmp sgt i32 %45, %49
  br i1 %50, label %51, label %60

51:                                               ; preds = %40
  %52 = load i32, i32* %3, align 4
  %53 = sext i32 %52 to i64
  %54 = getelementptr inbounds [30 x i32], [30 x i32]* bitcast (<{ i32, [29 x i32] }>* @dp to [30 x i32]*), i64 0, i64 %53
  %55 = load i32, i32* %54, align 4
  %56 = add nsw i32 %55, 1
  %57 = load i32, i32* %2, align 4
  %58 = sext i32 %57 to i64
  %59 = getelementptr inbounds [30 x i32], [30 x i32]* bitcast (<{ i32, [29 x i32] }>* @dp to [30 x i32]*), i64 0, i64 %58
  store i32 %56, i32* %59, align 4
  br label %60

60:                                               ; preds = %51, %40, %30
  br label %61

61:                                               ; preds = %60
  %62 = load i32, i32* %3, align 4
  %63 = add nsw i32 %62, 1
  store i32 %63, i32* %3, align 4
  br label %26

64:                                               ; preds = %26
  br label %65

65:                                               ; preds = %64
  %66 = load i32, i32* %2, align 4
  %67 = add nsw i32 %66, 1
  store i32 %67, i32* %2, align 4
  br label %18

68:                                               ; preds = %18
  store i32 0, i32* %2, align 4
  br label %69

69:                                               ; preds = %86, %68
  %70 = load i32, i32* %2, align 4
  %71 = load i32, i32* @n, align 4
  %72 = icmp slt i32 %70, %71
  br i1 %72, label %73, label %89

73:                                               ; preds = %69
  %74 = load i32, i32* %2, align 4
  %75 = sext i32 %74 to i64
  %76 = getelementptr inbounds [30 x i32], [30 x i32]* bitcast (<{ i32, [29 x i32] }>* @dp to [30 x i32]*), i64 0, i64 %75
  %77 = load i32, i32* %76, align 4
  %78 = load i32, i32* @ans, align 4
  %79 = icmp sgt i32 %77, %78
  br i1 %79, label %80, label %85

80:                                               ; preds = %73
  %81 = load i32, i32* %2, align 4
  %82 = sext i32 %81 to i64
  %83 = getelementptr inbounds [30 x i32], [30 x i32]* bitcast (<{ i32, [29 x i32] }>* @dp to [30 x i32]*), i64 0, i64 %82
  %84 = load i32, i32* %83, align 4
  store i32 %84, i32* @ans, align 4
  br label %85

85:                                               ; preds = %80, %73
  br label %86

86:                                               ; preds = %85
  %87 = load i32, i32* %2, align 4
  %88 = add nsw i32 %87, 1
  store i32 %88, i32* %2, align 4
  br label %69

89:                                               ; preds = %69
  %90 = load i32, i32* @ans, align 4
  %91 = call i32 (i8*, ...) @printf(i8* getelementptr inbounds ([4 x i8], [4 x i8]* @.str.1, i64 0, i64 0), i32 %90)
  ret i32 0
}

declare dso_local i32 @__isoc99_scanf(i8*, ...) #1

declare dso_local i32 @printf(i8*, ...) #1


!llvm.module.flags = !{!0}
!llvm.ident = !{!1}

!0 = !{i32 1, !"wchar_size", i32 4}
!1 = !{!"clang version 10.0.0-4ubuntu1 "}
